; Function Attrs: mustprogress uwtable
define void @_ZN4cvc58internal24IllegalArgumentException14formatVariadicB5cxx11EPKcz(ptr noalias sret(%"class.std::__cxx11::basic_string") align 8 %agg.result, ptr nocapture noundef readonly %format, ...) local_unnamed_addr #0 align 2 personality ptr @__gxx_personality_v0 {
entry:
  %args = alloca [1 x %struct.__va_list_tag], align 16
  %args_copy = alloca [1 x %struct.__va_list_tag], align 16
  %ref.tmp = alloca %"class.std::allocator", align 1
  call void @llvm.va_start(ptr nonnull %args)
  br label %for.body

for.body:                                         ; preds = %entry, %if.then
  %n.013 = phi i32 [ 512, %entry ], [ %add, %if.then ]
  %buf.012 = phi ptr [ null, %entry ], [ %call, %if.then ]
  %cmp = phi i1 [ true, %entry ], [ false, %if.then ]
  %isnull = icmp eq ptr %buf.012, null
  br i1 %isnull, label %delete.end, label %delete.notnull

delete.notnull:                                   ; preds = %for.body
  call void @_ZdaPv(ptr noundef nonnull %buf.012) #17
  br label %delete.end

delete.end:                                       ; preds = %delete.notnull, %for.body
  %conv = zext nneg i32 %n.013 to i64
  %call = call noalias noundef nonnull ptr @_Znam(i64 noundef %conv) #18
  call void @llvm.va_copy(ptr nonnull %args_copy, ptr nonnull %args)
  %call5 = call i32 @vsnprintf(ptr noundef nonnull %call, i64 noundef %conv, ptr noundef %format, ptr noundef nonnull %args) #16
  call void @llvm.va_end(ptr nonnull %args_copy)
  %cmp7.not = icmp slt i32 %call5, %n.013
  br i1 %cmp7.not, label %for.end, label %if.then

if.then:                                          ; preds = %delete.end
  %0 = sext i32 %n.013 to i64
  %1 = getelementptr i8, ptr %call, i64 %0
  %arrayidx = getelementptr i8, ptr %1, i64 -1
  store i8 0, ptr %arrayidx, align 1
  %add = add nuw nsw i32 %call5, 1
  br i1 %cmp, label %for.body, label %for.end, !llvm.loop !4

for.end:                                          ; preds = %delete.end, %if.then
  call void @_ZNSaIcEC1Ev(ptr noundef nonnull align 1 dereferenceable(1) %ref.tmp) #16
  %call.i10 = invoke noundef ptr @_ZNSt7__cxx1112basic_stringIcSt11char_traitsIcESaIcEE13_M_local_dataEv(ptr noundef nonnull align 8 dereferenceable(32) %agg.result)
          to label %call.i.noexc unwind label %lpad

call.i.noexc:                                     ; preds = %for.end
  invoke void @_ZNSt7__cxx1112basic_stringIcSt11char_traitsIcESaIcEE12_Alloc_hiderC1EPcRKS3_(ptr noundef nonnull align 8 dereferenceable(8) %agg.result, ptr noundef %call.i10, ptr noundef nonnull align 1 dereferenceable(1) %ref.tmp)
          to label %if.end.i unwind label %lpad

lpad.i:                                           ; preds = %if.end.i
  %2 = landingpad { ptr, i32 }
          cleanup
  call void @_ZNSaIcED2Ev(ptr noundef nonnull align 1 dereferenceable(1) %agg.result) #16
  br label %lpad.body

if.end.i:                                         ; preds = %call.i.noexc
  %call.i.i = call noundef i64 @strlen(ptr noundef nonnull dereferenceable(1) %call) #16
  %add.ptr.i = getelementptr inbounds i8, ptr %call, i64 %call.i.i
  invoke void @_ZNSt7__cxx1112basic_stringIcSt11char_traitsIcESaIcEE12_M_constructIPKcEEvT_S8_St20forward_iterator_tag(ptr noundef nonnull align 8 dereferenceable(32) %agg.result, ptr noundef nonnull %call, ptr noundef nonnull %add.ptr.i)
          to label %delete.end10 unwind label %lpad.i

delete.end10:                                     ; preds = %if.end.i
  call void @_ZNSaIcED1Ev(ptr noundef nonnull align 1 dereferenceable(1) %ref.tmp) #16
  call void @_ZdaPv(ptr noundef nonnull %call) #17
  call void @llvm.va_end(ptr nonnull %args)
  ret void

lpad:                                             ; preds = %call.i.noexc, %for.end
  %3 = landingpad { ptr, i32 }
          cleanup
  br label %lpad.body

lpad.body:                                        ; preds = %lpad.i, %lpad
  %eh.lpad-body = phi { ptr, i32 } [ %3, %lpad ], [ %2, %lpad.i ]
  call void @_ZNSaIcED1Ev(ptr noundef nonnull align 1 dereferenceable(1) %ref.tmp) #16
  resume { ptr, i32 } %eh.lpad-body
}